GAS LISTING C:\Users\Bruno\AppData\Local\Temp\ccUFDJ2f.s 			page 1


   1               		.file	"TP7b.cpp"
   2               	__SP_H__ = 0x3e
   3               	__SP_L__ = 0x3d
   4               	__SREG__ = 0x3f
   5               	__tmp_reg__ = 0
   6               	__zero_reg__ = 1
   7               		.text
   8               	.Ltext0:
   9               		.cfi_sections	.debug_frame
  10               	.global	_ZN3canC2Ev
  11               		.type	_ZN3canC2Ev, @function
  12               	_ZN3canC2Ev:
  13               	.LFB7:
  14               		.file 1 "can.cpp"
   1:can.cpp       **** /*
   2:can.cpp       ****  * Ecole Polytechnique de Montreal
   3:can.cpp       ****  * Departement de genie informatique
   4:can.cpp       ****  * Cours inf1995
   5:can.cpp       ****  *
   6:can.cpp       ****  * Matthew Khouzam et Jerome Collin
   7:can.cpp       ****  * 2005-2006
   8:can.cpp       ****  *
   9:can.cpp       ****  * Code qui n'est sous aucune license.
  10:can.cpp       ****  *
  11:can.cpp       ****  */
  12:can.cpp       **** 
  13:can.cpp       **** #include "can.h"
  14:can.cpp       **** 
  15:can.cpp       **** // constructeur: initialisation du convertisseur
  16:can.cpp       **** can::can()
  15               		.loc 1 16 0
  16               		.cfi_startproc
  17               	.LVL0:
  18               	/* prologue: function */
  19               	/* frame size = 0 */
  20               	/* stack size = 0 */
  21               	.L__stack_usage = 0
  22               	.LBB9:
  17:can.cpp       **** {
  18:can.cpp       ****    // ADC mux : reference analogique externe
  19:can.cpp       ****    //           ajuste a droite
  20:can.cpp       ****    ADMUX  = ( 0 << REFS1 ) | ( 0 << REFS0 ) | ( 0 << ADLAR ) | ( 0 << MUX4 ) |
  21:can.cpp       ****             ( 0 << MUX3 ) | ( 0 << MUX2 ) | ( 0 << MUX1) | ( 0 << MUX0 ) ;
  23               		.loc 1 21 0
  24 0000 1092 7C00 		sts 124,__zero_reg__
  22:can.cpp       **** 
  23:can.cpp       ****    // ADC Status and Control Register A : 
  24:can.cpp       ****    //  Active le convertisseur mais sans demarrer de conversion pour l'instant.
  25:can.cpp       ****    //  Pas de declanchement automatique et aucune interruption suivant
  26:can.cpp       ****    //  la fin d'une convertion. Division de l'horloge par 64 (il faudra
  27:can.cpp       ****    //  donc 13 cycles du convertisseur * 64 pour terminer une conversion
  28:can.cpp       ****    //  soit 832 cycles d'horloge soit 104 micro-secondes
  29:can.cpp       ****    ADCSRA = ( 1 << ADEN ) | ( 0 << ADSC )  | ( 0 << ADATE ) | ( 0 << ADIF ) |
  30:can.cpp       ****             ( 0 << ADIE ) | ( 1 << ADPS2 ) | ( 1 << ADPS1 ) | ( 0 << ADPS0 ) ;
  25               		.loc 1 30 0
  26 0004 86E8      		ldi r24,lo8(-122)
  27               	.LVL1:
GAS LISTING C:\Users\Bruno\AppData\Local\Temp\ccUFDJ2f.s 			page 2


  28 0006 8093 7A00 		sts 122,r24
  29 000a 0895      		ret
  30               	.LBE9:
  31               		.cfi_endproc
  32               	.LFE7:
  33               		.size	_ZN3canC2Ev, .-_ZN3canC2Ev
  34               	.global	_ZN3canC1Ev
  35               		.set	_ZN3canC1Ev,_ZN3canC2Ev
  36               	.global	_ZN3canD2Ev
  37               		.type	_ZN3canD2Ev, @function
  38               	_ZN3canD2Ev:
  39               	.LFB10:
  31:can.cpp       **** }
  32:can.cpp       **** 
  33:can.cpp       **** // Destructeur:  Arreter le convertisseur pour sauver sur la consommation.
  34:can.cpp       **** can::~can()
  40               		.loc 1 34 0
  41               		.cfi_startproc
  42               	.LVL2:
  43               	/* prologue: function */
  44               	/* frame size = 0 */
  45               	/* stack size = 0 */
  46               	.L__stack_usage = 0
  47               	.LBB10:
  35:can.cpp       **** {
  36:can.cpp       ****    // rendre le convertisseur inactif.
  37:can.cpp       ****    ADCSRA = 0 << ADEN ;
  48               		.loc 1 37 0
  49 000c 1092 7A00 		sts 122,__zero_reg__
  50 0010 0895      		ret
  51               	.LBE10:
  52               		.cfi_endproc
  53               	.LFE10:
  54               		.size	_ZN3canD2Ev, .-_ZN3canD2Ev
  55               	.global	_ZN3canD1Ev
  56               		.set	_ZN3canD1Ev,_ZN3canD2Ev
  57               	.global	_ZN3can7lectureEh
  58               		.type	_ZN3can7lectureEh, @function
  59               	_ZN3can7lectureEh:
  60               	.LFB12:
  38:can.cpp       **** }
  39:can.cpp       **** 
  40:can.cpp       **** // Faire une conversion et aller retourner le resultat sur 16 bits
  41:can.cpp       **** // dont seulement les 10 de poids faibles sont significatifs.
  42:can.cpp       **** uint16_t
  43:can.cpp       **** can::lecture( uint8_t pos)
  44:can.cpp       **** {
  61               		.loc 1 44 0
  62               		.cfi_startproc
  63               	.LVL3:
  64               	/* prologue: function */
  65               	/* frame size = 0 */
  66               	/* stack size = 0 */
  67               	.L__stack_usage = 0
  68               	.LBB11:
  45:can.cpp       ****    uint16_t adcVal;
  46:can.cpp       **** 
GAS LISTING C:\Users\Bruno\AppData\Local\Temp\ccUFDJ2f.s 			page 3


  47:can.cpp       ****    // Garder les bits de ADMUX intacts, sauf les bit permettant 
  48:can.cpp       ****    // la selection de l'entree
  49:can.cpp       ****    ADMUX  &=  ~(( 1 << MUX4 ) | ( 1 << MUX3 ) | 
  50:can.cpp       ****                 ( 1 << MUX2 ) | ( 1 << MUX1)  | ( 1 << MUX0 ));
  69               		.loc 1 50 0
  70 0012 8091 7C00 		lds r24,124
  71               	.LVL4:
  72 0016 807E      		andi r24,lo8(-32)
  73 0018 8093 7C00 		sts 124,r24
  51:can.cpp       **** 
  52:can.cpp       ****    // selectionner l'entree voulue
  53:can.cpp       ****    ADMUX |= ((pos & 0x07) << MUX0) ;
  74               		.loc 1 53 0
  75 001c 8091 7C00 		lds r24,124
  76 0020 6770      		andi r22,lo8(7)
  77               	.LVL5:
  78 0022 682B      		or r22,r24
  79 0024 6093 7C00 		sts 124,r22
  54:can.cpp       **** 
  55:can.cpp       ****    // demarrer la conversion
  56:can.cpp       ****    ADCSRA |= ( 1 << ADSC );
  80               		.loc 1 56 0
  81 0028 8091 7A00 		lds r24,122
  82 002c 8064      		ori r24,lo8(64)
  83 002e 8093 7A00 		sts 122,r24
  84               	.L4:
  57:can.cpp       **** 
  58:can.cpp       ****    // Attendre la fin de la conversion soit 13 cycles du convertisseur.
  59:can.cpp       ****    while( ! (ADCSRA & ( 1 << ADIF ) ) );
  85               		.loc 1 59 0 discriminator 1
  86 0032 8091 7A00 		lds r24,122
  87 0036 84FF      		sbrs r24,4
  88 0038 00C0      		rjmp .L4
  60:can.cpp       **** 
  61:can.cpp       ****    // important: remettre le bit d'indication de fin de cycle a zero 
  62:can.cpp       ****    // pour la prochaine conversion ce qui se fait en l'ajustant a un.
  63:can.cpp       ****    ADCSRA |= (1 << ADIF);
  89               		.loc 1 63 0
  90 003a 8091 7A00 		lds r24,122
  91 003e 8061      		ori r24,lo8(16)
  92 0040 8093 7A00 		sts 122,r24
  64:can.cpp       **** 
  65:can.cpp       ****    // Aller chercher le resultat sur 16 bits.
  66:can.cpp       ****    adcVal =   ADCL ;
  93               		.loc 1 66 0
  94 0044 2091 7800 		lds r18,120
  95               	.LVL6:
  67:can.cpp       ****    adcVal +=  ADCH << 8;
  96               		.loc 1 67 0
  97 0048 8091 7900 		lds r24,121
  98               	.LVL7:
  99 004c 90E0      		ldi r25,0
 100 004e 982F      		mov r25,r24
 101 0050 8827      		clr r24
 102               	.LVL8:
 103               	.LBE11:
  68:can.cpp       **** 
GAS LISTING C:\Users\Bruno\AppData\Local\Temp\ccUFDJ2f.s 			page 4


  69:can.cpp       ****    // resultat sur 16 bits
  70:can.cpp       ****    return adcVal;
  71:can.cpp       **** }
 104               		.loc 1 71 0
 105 0052 820F      		add r24,r18
 106 0054 911D      		adc r25,__zero_reg__
 107 0056 0895      		ret
 108               		.cfi_endproc
 109               	.LFE12:
 110               		.size	_ZN3can7lectureEh, .-_ZN3can7lectureEh
 111               	.global	_Z14initialisationv
 112               		.type	_Z14initialisationv, @function
 113               	_Z14initialisationv:
 114               	.LFB13:
 115               		.file 2 "TP7b.cpp"
   1:TP7b.cpp      **** /* Fichier : TP7b.cpp
   2:TP7b.cpp      ****  * Auteurs : Bruno Bousquet et Dominique Deschênes
   3:TP7b.cpp      ****  * Date	   : 25 février 2016
   4:TP7b.cpp      ****  * But     : Petit programme qui colore la DEL proportionellement à l'intensitée lumineuse 
   5:TP7b.cpp      ****  * 		lue par le CAN.
   6:TP7b.cpp      ****  
   7:TP7b.cpp      **** -/!\- BRANCHEMENTS -/!\-
   8:TP7b.cpp      ****  * Alimentation Breadboard : Fils rouge et noir sur VCC et GND.
   9:TP7b.cpp      ****  * Connexion photoresistance : Fil bleu sur pin 1 du PORTA.
  10:TP7b.cpp      ****  * Connexion DEL : (+) -> PORTC 1, (-) -> PORTC 2.
  11:TP7b.cpp      ****  */
  12:TP7b.cpp      **** 
  13:TP7b.cpp      **** #include "tp.h"
  14:TP7b.cpp      **** #include "can.cpp"
  15:TP7b.cpp      **** 
  16:TP7b.cpp      **** // Applique les bons paramètres aux ports I/O.
  17:TP7b.cpp      **** void initialisation()
  18:TP7b.cpp      **** {	
 116               		.loc 2 18 0
 117               		.cfi_startproc
 118               	/* prologue: function */
 119               	/* frame size = 0 */
 120               	/* stack size = 0 */
 121               	.L__stack_usage = 0
  19:TP7b.cpp      **** 	DDRA = SORTIE; // On definit les ports A en sortie.
 122               		.loc 2 19 0
 123 0058 8FEF      		ldi r24,lo8(-1)
 124 005a 81B9      		out 0x1,r24
  20:TP7b.cpp      **** 	DDRB = SORTIE; // On definit les ports B en sortie.
 125               		.loc 2 20 0
 126 005c 84B9      		out 0x4,r24
  21:TP7b.cpp      **** 	DDRC = SORTIE; // On definit les ports C en sortie.
 127               		.loc 2 21 0
 128 005e 87B9      		out 0x7,r24
  22:TP7b.cpp      **** 	DDRD = SORTIE; // On definit les ports D en sortie.
 129               		.loc 2 22 0
 130 0060 8AB9      		out 0xa,r24
 131 0062 0895      		ret
 132               		.cfi_endproc
 133               	.LFE13:
 134               		.size	_Z14initialisationv, .-_Z14initialisationv
 135               		.section	.text.startup,"ax",@progbits
GAS LISTING C:\Users\Bruno\AppData\Local\Temp\ccUFDJ2f.s 			page 5


 136               	.global	main
 137               		.type	main, @function
 138               	main:
 139               	.LFB14:
  23:TP7b.cpp      **** }
  24:TP7b.cpp      **** 
  25:TP7b.cpp      **** int main()
  26:TP7b.cpp      **** {
 140               		.loc 2 26 0
 141               		.cfi_startproc
 142 0000 CF93      		push r28
 143               	.LCFI0:
 144               		.cfi_def_cfa_offset 3
 145               		.cfi_offset 28, -2
 146 0002 DF93      		push r29
 147               	.LCFI1:
 148               		.cfi_def_cfa_offset 4
 149               		.cfi_offset 29, -3
 150 0004 1F92      		push __zero_reg__
 151               	.LCFI2:
 152               		.cfi_def_cfa_offset 5
 153 0006 CDB7      		in r28,__SP_L__
 154 0008 DEB7      		in r29,__SP_H__
 155               	.LCFI3:
 156               		.cfi_def_cfa_register 28
 157               	/* prologue: function */
 158               	/* frame size = 1 */
 159               	/* stack size = 3 */
 160               	.L__stack_usage = 3
 161               	.LVL9:
 162               	.LBB12:
  27:TP7b.cpp      **** 	/* Valeur du décalage de la lecture du CAN pour amplifier le signal.
  28:TP7b.cpp      **** 	 * Sinon la luminosité ambiante n'est pas assez pour faire une couleur
  29:TP7b.cpp      **** 	 * ambrée.  */
  30:TP7b.cpp      **** 	const uint8_t amplification = 5;
  31:TP7b.cpp      **** 
  32:TP7b.cpp      **** 	// Valeur où est stockée la lecture du CAN.
  33:TP7b.cpp      **** 	uint8_t bronzage = 0;
  34:TP7b.cpp      **** 	// Valeur du compteur pour la couleur.
  35:TP7b.cpp      **** 	uint8_t compteur = 0;
  36:TP7b.cpp      **** 	initialisation();
 163               		.loc 2 36 0
 164 000a 0E94 0000 		call _Z14initialisationv
 165               	.LVL10:
 166               	.LBB13:
 167               	.LBB14:
  30:can.cpp       **** }
 168               		.loc 1 30 0
 169 000e 16E8      		ldi r17,lo8(-122)
 170               	.LBE14:
 171               	.LBE13:
  37:TP7b.cpp      **** 	
  38:TP7b.cpp      **** 	// On fait la boucle indéfiniment.
  39:TP7b.cpp      **** 	for(;;)
  40:TP7b.cpp      **** 	{
  41:TP7b.cpp      **** 		// Effectue la lecture du CAN.
  42:TP7b.cpp      **** 		bronzage = can().lecture(0) << (amplification - 2);
GAS LISTING C:\Users\Bruno\AppData\Local\Temp\ccUFDJ2f.s 			page 6


  43:TP7b.cpp      **** 
  44:TP7b.cpp      **** 		/* De 0 à bronzage, la DEL allume rouge : plus bronzage est grand, 
  45:TP7b.cpp      **** 		 *	plus la lumière sera rouge longtemps.
  46:TP7b.cpp      **** 		 * On remet le compteur = 0.  */
  47:TP7b.cpp      **** 		for(compteur = 0; compteur < bronzage; compteur++)
  48:TP7b.cpp      **** 			PORTC = ROUGE;
 172               		.loc 2 48 0
 173 0010 01E0      		ldi r16,lo8(1)
  49:TP7b.cpp      **** 		
  50:TP7b.cpp      **** 		/* De bronzage à valeur max, la DEL allume vert : plus bronzage 
  51:TP7b.cpp      **** 		 *	est petit plus la lumière sera verte longtemps.  */
  52:TP7b.cpp      **** 		for(; compteur < 0xff; compteur++)
  53:TP7b.cpp      **** 			PORTC = VERT;
 174               		.loc 2 53 0
 175 0012 82E0      		ldi r24,lo8(2)
 176 0014 F82E      		mov r15,r24
 177               	.LVL11:
 178               	.L14:
 179               	.LBB16:
 180               	.LBB15:
  21:can.cpp       **** 
 181               		.loc 1 21 0
 182 0016 1092 7C00 		sts 124,__zero_reg__
  30:can.cpp       **** }
 183               		.loc 1 30 0
 184 001a 1093 7A00 		sts 122,r17
 185               	.LBE15:
 186               	.LBE16:
  42:TP7b.cpp      **** 
 187               		.loc 2 42 0
 188 001e 60E0      		ldi r22,0
 189 0020 CE01      		movw r24,r28
 190 0022 0196      		adiw r24,1
 191 0024 0E94 0000 		call _ZN3can7lectureEh
 192               	.LVL12:
 193 0028 880F      		lsl r24
 194 002a 880F      		lsl r24
 195 002c 880F      		lsl r24
 196               	.LVL13:
 197               	.LBB17:
 198               	.LBB18:
  37:can.cpp       **** }
 199               		.loc 1 37 0
 200 002e 1092 7A00 		sts 122,__zero_reg__
 201               	.LVL14:
 202               	.LBE18:
 203               	.LBE17:
  47:TP7b.cpp      **** 			PORTC = ROUGE;
 204               		.loc 2 47 0
 205 0032 90E0      		ldi r25,0
 206               	.LVL15:
 207               	.L10:
  47:TP7b.cpp      **** 			PORTC = ROUGE;
 208               		.loc 2 47 0 is_stmt 0 discriminator 1
 209 0034 9817      		cp r25,r24
 210 0036 01F0      		breq .L12
  48:TP7b.cpp      **** 		
GAS LISTING C:\Users\Bruno\AppData\Local\Temp\ccUFDJ2f.s 			page 7


 211               		.loc 2 48 0 is_stmt 1 discriminator 3
 212 0038 08B9      		out 0x8,r16
  47:TP7b.cpp      **** 			PORTC = ROUGE;
 213               		.loc 2 47 0 discriminator 3
 214 003a 9F5F      		subi r25,lo8(-(1))
 215               	.LVL16:
 216 003c 00C0      		rjmp .L10
 217               	.LVL17:
 218               	.L12:
  52:TP7b.cpp      **** 			PORTC = VERT;
 219               		.loc 2 52 0 discriminator 1
 220 003e 8F3F      		cpi r24,lo8(-1)
 221 0040 01F0      		breq .L14
 222               		.loc 2 53 0 discriminator 2
 223 0042 F8B8      		out 0x8,r15
  52:TP7b.cpp      **** 			PORTC = VERT;
 224               		.loc 2 52 0 discriminator 2
 225 0044 8F5F      		subi r24,lo8(-(1))
 226               	.LVL18:
 227 0046 00C0      		rjmp .L12
 228               	.LBE12:
 229               		.cfi_endproc
 230               	.LFE14:
 231               		.size	main, .-main
 232               		.text
 233               	.Letext0:
 234               		.file 3 "c:\\winavr-20100110\\avr\\include\\stdint.h"
 235               		.file 4 "can.h"